target datalayout = "e-m:e-p270:32:32-p271:32:32-p272:64:64-i64:64-i128:128-f80:128-n8:16:32:64-S128"
target triple = "x86_64-pc-linux-gnu"

; Function Attrs: mustprogress nounwind uwtable
define dso_local noundef zeroext i8 @_ZN4llvm8codeview17encodeFramePtrRegENS0_10RegisterIdENS0_7CPUTypeE(i16 noundef zeroext %0, i16 noundef zeroext %1) #0 {
  %3 = alloca i8, align 1
  %4 = alloca i16, align 2
  %5 = alloca i16, align 2
  store i16 %0, ptr %4, align 2
  store i16 %1, ptr %5, align 2
  %6 = load i16, ptr %5, align 2
  switch i16 %6, label %7 [
    i16 0, label %8
    i16 1, label %8
    i16 2, label %8
    i16 3, label %8
    i16 4, label %8
    i16 5, label %8
    i16 6, label %8
    i16 7, label %8
    i16 208, label %15
  ]

7:                                                ; preds = %2
  br label %22

8:                                                ; preds = %2, %2, %2, %2, %2, %2, %2, %2
  %9 = load i16, ptr %4, align 2
  switch i16 %9, label %13 [
    i16 30006, label %10
    i16 22, label %11
    i16 20, label %12
  ]

10:                                               ; preds = %8
  store i8 1, ptr %3, align 1
  br label %23

11:                                               ; preds = %8
  store i8 2, ptr %3, align 1
  br label %23

12:                                               ; preds = %8
  store i8 3, ptr %3, align 1
  br label %23

13:                                               ; preds = %8
  br label %14

14:                                               ; preds = %13
  br label %22

15:                                               ; preds = %2
  %16 = load i16, ptr %4, align 2
  switch i16 %16, label %20 [
    i16 335, label %17
    i16 334, label %18
    i16 341, label %19
  ]

17:                                               ; preds = %15
  store i8 1, ptr %3, align 1
  br label %23

18:                                               ; preds = %15
  store i8 2, ptr %3, align 1
  br label %23

19:                                               ; preds = %15
  store i8 3, ptr %3, align 1
  br label %23

20:                                               ; preds = %15
  br label %21

21:                                               ; preds = %20
  br label %22

22:                                               ; preds = %21, %14, %7
  store i8 0, ptr %3, align 1
  br label %23

23:                                               ; preds = %22, %19, %18, %17, %12, %11, %10
  %24 = load i8, ptr %3, align 1
  ret i8 %24
}