; Function Attrs: mustprogress nofree norecurse nosync nounwind willreturn memory(none) uwtable
define dso_local noundef zeroext range(i8 0, 4) i8 @_ZN4llvm8codeview17encodeFramePtrRegENS0_10RegisterIdENS0_7CPUTypeE(i16 noundef zeroext %0, i16 noundef zeroext %1) local_unnamed_addr #3 {
  switch i16 %1, label %8 [
    i16 0, label %3
    i16 1, label %3
    i16 2, label %3
    i16 3, label %3
    i16 4, label %3
    i16 5, label %3
    i16 6, label %3
    i16 7, label %3
    i16 208, label %6
  ]

3:                                                ; preds = %2, %2, %2, %2, %2, %2, %2, %2
  switch i16 %0, label %8 [
    i16 30006, label %10
    i16 22, label %4
    i16 20, label %5
  ]

4:                                                ; preds = %3
  br label %10

5:                                                ; preds = %3
  br label %10

6:                                                ; preds = %2
  %switch.tableidx = add i16 %0, -334
  %7 = icmp ult i16 %switch.tableidx, 8
  br i1 %7, label %switch.lookup, label %8

8:                                                ; preds = %6, %3, %2
  br label %10

switch.lookup:                                    ; preds = %6
  %9 = shl nuw nsw i16 %switch.tableidx, 3
  %switch.shiftamt = zext nneg i16 %9 to i64
  %switch.downshift = lshr i64 216172782113784066, %switch.shiftamt
  %switch.masked = trunc i64 %switch.downshift to i8
  br label %10

10:                                               ; preds = %switch.lookup, %3, %8, %5, %4
  %.0 = phi i8 [ 0, %8 ], [ 3, %5 ], [ 2, %4 ], [ 1, %3 ], [ %switch.masked, %switch.lookup ]
  ret i8 %.0
}